target datalayout = "e-m:e-p270:32:32-p271:32:32-p272:64:64-i64:64-i128:128-f80:128-n8:16:32:64-S128"
target triple = "x86_64-pc-linux-gnu"

%struct.H5FD_core_t = type { %struct.H5FD_t, ptr, ptr, i64, i64, i64, i8, i8, i64, i8, i32, i64, i64, i8, %struct.H5FD_file_image_callbacks_t, ptr }
%struct.H5FD_t = type { i64, ptr, i64, i32, i64, i64, i64, i64, i64, i8 }
%struct.H5FD_file_image_callbacks_t = type { ptr, ptr, ptr, ptr, ptr, ptr, ptr }
%struct.H5FD_core_region_t = type { i64, i64 }

@H5_H5FD_core_region_t_reg_free_list = global { i8, [3 x i8], i32, i32, [4 x i8], ptr, i64, ptr } { i8 0, [3 x i8] zeroinitializer, i32 0, i32 0, [4 x i8] zeroinitializer, ptr @.str, i64 16, ptr null }, align 8
@H5FD_init_g = external global i8, align 1
@H5_libterm_g = external global i8, align 1
@.str.1 = private unnamed_addr constant [102 x i8] c"generated/home/dtcxzyw/WorkSpace/Projects/compilers/llvm-opt-benchmark/bench/hdf5/hdf5/src/H5FDcore.c\00", align 1
@H5E_VFL_g = external global i64, align 8
@__func__.H5FD__core_flush = private unnamed_addr constant [17 x i8] c"H5FD__core_flush\00", align 1
@H5E_WRITEERROR_g = external global i64, align 8
@.str.47 = private unnamed_addr constant [33 x i8] c"unable to write to backing store\00", align 1

; Function Attrs: nounwind uwtable
define internal i32 @H5FD__core_flush(ptr noundef %0, i64 noundef %1, i1 noundef zeroext %2) #0 {
  %4 = alloca i32, align 4
  %5 = alloca ptr, align 8
  %6 = alloca i64, align 8
  %7 = alloca i8, align 1
  %8 = alloca ptr, align 8
  %9 = alloca i32, align 4
  %10 = alloca i8, align 1
  %11 = alloca ptr, align 8
  %12 = alloca i64, align 8
  %13 = alloca i32, align 4
  store ptr %0, ptr %5, align 8, !tbaa !29
  store i64 %1, ptr %6, align 8, !tbaa !11
  %14 = zext i1 %2 to i8
  store i8 %14, ptr %7, align 1, !tbaa !7
  call void @llvm.lifetime.start.p0(i64 8, ptr %8) #12
  %15 = load ptr, ptr %5, align 8, !tbaa !29
  store ptr %15, ptr %8, align 8, !tbaa !31
  call void @llvm.lifetime.start.p0(i64 4, ptr %9) #12
  store i32 0, ptr %9, align 4, !tbaa !3
  call void @llvm.lifetime.start.p0(i64 1, ptr %10) #12
  store i8 0, ptr %10, align 1, !tbaa !7
  %16 = load i8, ptr @H5FD_init_g, align 1, !tbaa !7, !range !9, !noundef !10
  %17 = trunc i8 %16 to i1
  br i1 %17, label %22, label %18

18:                                               ; preds = %3
  %19 = load i8, ptr @H5_libterm_g, align 1, !tbaa !7, !range !9, !noundef !10
  %20 = trunc i8 %19 to i1
  %21 = xor i1 %20, true
  br label %22

22:                                               ; preds = %18, %3
  %23 = phi i1 [ true, %3 ], [ %21, %18 ]
  %24 = xor i1 %23, true
  %25 = xor i1 %24, true
  %26 = zext i1 %25 to i32
  %27 = sext i32 %26 to i64
  %28 = call i64 @llvm.expect.i64(i64 %27, i64 1)
  %29 = icmp ne i64 %28, 0
  br i1 %29, label %30, label %155

30:                                               ; preds = %22
  %31 = load ptr, ptr %8, align 8, !tbaa !31
  %32 = getelementptr inbounds nuw %struct.H5FD_core_t, ptr %31, i32 0, i32 13
  %33 = load i8, ptr %32, align 8, !tbaa !70, !range !9, !noundef !10
  %34 = trunc i8 %33 to i1
  br i1 %34, label %35, label %153

35:                                               ; preds = %30
  %36 = load ptr, ptr %8, align 8, !tbaa !31
  %37 = getelementptr inbounds nuw %struct.H5FD_core_t, ptr %36, i32 0, i32 10
  %38 = load i32, ptr %37, align 4, !tbaa !40
  %39 = icmp sge i32 %38, 0
  br i1 %39, label %40, label %153

40:                                               ; preds = %35
  %41 = load ptr, ptr %8, align 8, !tbaa !31
  %42 = getelementptr inbounds nuw %struct.H5FD_core_t, ptr %41, i32 0, i32 6
  %43 = load i8, ptr %42, align 8, !tbaa !47, !range !9, !noundef !10
  %44 = trunc i8 %43 to i1
  br i1 %44, label %45, label %153

45:                                               ; preds = %40
  %46 = load ptr, ptr %8, align 8, !tbaa !31
  %47 = getelementptr inbounds nuw %struct.H5FD_core_t, ptr %46, i32 0, i32 15
  %48 = load ptr, ptr %47, align 8, !tbaa !66
  %49 = icmp ne ptr %48, null
  br i1 %49, label %50, label %123

50:                                               ; preds = %45
  call void @llvm.lifetime.start.p0(i64 8, ptr %11) #12
  store ptr null, ptr %11, align 8, !tbaa !71
  call void @llvm.lifetime.start.p0(i64 8, ptr %12) #12
  br label %51

51:                                               ; preds = %116, %50
  %52 = load ptr, ptr %8, align 8, !tbaa !31
  %53 = getelementptr inbounds nuw %struct.H5FD_core_t, ptr %52, i32 0, i32 15
  %54 = load ptr, ptr %53, align 8, !tbaa !66
  %55 = call ptr @H5SL_remove_first(ptr noundef %54)
  store ptr %55, ptr %11, align 8, !tbaa !71
  %56 = icmp ne ptr null, %55
  br i1 %56, label %57, label %119

57:                                               ; preds = %51
  %58 = load ptr, ptr %11, align 8, !tbaa !71
  %59 = getelementptr inbounds nuw %struct.H5FD_core_region_t, ptr %58, i32 0, i32 0
  %60 = load i64, ptr %59, align 8, !tbaa !73
  %61 = load ptr, ptr %8, align 8, !tbaa !31
  %62 = getelementptr inbounds nuw %struct.H5FD_core_t, ptr %61, i32 0, i32 4
  %63 = load i64, ptr %62, align 8, !tbaa !61
  %64 = icmp ult i64 %60, %63
  br i1 %64, label %65, label %116

65:                                               ; preds = %57
  %66 = load ptr, ptr %11, align 8, !tbaa !71
  %67 = getelementptr inbounds nuw %struct.H5FD_core_region_t, ptr %66, i32 0, i32 1
  %68 = load i64, ptr %67, align 8, !tbaa !75
  %69 = load ptr, ptr %8, align 8, !tbaa !31
  %70 = getelementptr inbounds nuw %struct.H5FD_core_t, ptr %69, i32 0, i32 4
  %71 = load i64, ptr %70, align 8, !tbaa !61
  %72 = icmp uge i64 %68, %71
  br i1 %72, label %73, label %80

73:                                               ; preds = %65
  %74 = load ptr, ptr %8, align 8, !tbaa !31
  %75 = getelementptr inbounds nuw %struct.H5FD_core_t, ptr %74, i32 0, i32 4
  %76 = load i64, ptr %75, align 8, !tbaa !61
  %77 = sub i64 %76, 1
  %78 = load ptr, ptr %11, align 8, !tbaa !71
  %79 = getelementptr inbounds nuw %struct.H5FD_core_region_t, ptr %78, i32 0, i32 1
  store i64 %77, ptr %79, align 8, !tbaa !75
  br label %80

80:                                               ; preds = %73, %65
  %81 = load ptr, ptr %11, align 8, !tbaa !71
  %82 = getelementptr inbounds nuw %struct.H5FD_core_region_t, ptr %81, i32 0, i32 1
  %83 = load i64, ptr %82, align 8, !tbaa !75
  %84 = load ptr, ptr %11, align 8, !tbaa !71
  %85 = getelementptr inbounds nuw %struct.H5FD_core_region_t, ptr %84, i32 0, i32 0
  %86 = load i64, ptr %85, align 8, !tbaa !73
  %87 = sub i64 %83, %86
  %88 = add i64 %87, 1
  store i64 %88, ptr %12, align 8, !tbaa !11
  %89 = load ptr, ptr %8, align 8, !tbaa !31
  %90 = load ptr, ptr %11, align 8, !tbaa !71
  %91 = getelementptr inbounds nuw %struct.H5FD_core_region_t, ptr %90, i32 0, i32 0
  %92 = load i64, ptr %91, align 8, !tbaa !73
  %93 = load i64, ptr %12, align 8, !tbaa !11
  %94 = call i32 @H5FD__core_write_to_bstore(ptr noundef %89, i64 noundef %92, i64 noundef %93)
  %95 = icmp ne i32 %94, 0
  br i1 %95, label %96, label %115

96:                                               ; preds = %80
  br label %97

97:                                               ; preds = %96
  br label %98

98:                                               ; preds = %97
  br label %99

99:                                               ; preds = %98
  %100 = load i64, ptr @H5E_VFL_g, align 8, !tbaa !11
  %101 = load i64, ptr @H5E_WRITEERROR_g, align 8, !tbaa !11
  %102 = call i32 (ptr, ptr, i32, i64, i64, ptr, ...) @H5E_printf_stack(ptr noundef @.str.1, ptr noundef @__func__.H5FD__core_flush, i32 noundef 1453, i64 noundef %100, i64 noundef %101, ptr noundef @.str.47)
  br label %103

103:                                              ; preds = %99
  br label %104

104:                                              ; preds = %103
  store i8 1, ptr %10, align 1, !tbaa !7
  %105 = load i8, ptr %10, align 1, !tbaa !7, !range !9, !noundef !10
  %106 = trunc i8 %105 to i1
  %107 = zext i1 %106 to i8
  store i8 %107, ptr %10, align 1, !tbaa !7
  br label %108

108:                                              ; preds = %104
  br label %109

109:                                              ; preds = %108
  br label %110

110:                                              ; preds = %109
  store i32 -1, ptr %9, align 4, !tbaa !3
  store i32 12, ptr %13, align 4
  br label %120

111:                                              ; No predecessors!
  br label %112

112:                                              ; preds = %111
  br label %113

113:                                              ; preds = %112
  br label %114

114:                                              ; preds = %113
  br label %115

115:                                              ; preds = %114, %80
  br label %116

116:                                              ; preds = %115, %57
  %117 = load ptr, ptr %11, align 8, !tbaa !71
  %118 = call ptr @H5FL_reg_free(ptr noundef @H5_H5FD_core_region_t_reg_free_list, ptr noundef %117)
  store ptr %118, ptr %11, align 8, !tbaa !71
  br label %51, !llvm.loop !76

119:                                              ; preds = %51
  store i32 0, ptr %13, align 4
  br label %120

120:                                              ; preds = %110, %119
  call void @llvm.lifetime.end.p0(i64 8, ptr %12) #12
  call void @llvm.lifetime.end.p0(i64 8, ptr %11) #12
  %121 = load i32, ptr %13, align 4
  switch i32 %121, label %157 [
    i32 0, label %122
    i32 12, label %154
  ]

122:                                              ; preds = %120
  br label %150

123:                                              ; preds = %45
  %124 = load ptr, ptr %8, align 8, !tbaa !31
  %125 = load ptr, ptr %8, align 8, !tbaa !31
  %126 = getelementptr inbounds nuw %struct.H5FD_core_t, ptr %125, i32 0, i32 4
  %127 = load i64, ptr %126, align 8, !tbaa !61
  %128 = call i32 @H5FD__core_write_to_bstore(ptr noundef %124, i64 noundef 0, i64 noundef %127)
  %129 = icmp ne i32 %128, 0
  br i1 %129, label %130, label %149

130:                                              ; preds = %123
  br label %131

131:                                              ; preds = %130
  br label %132

132:                                              ; preds = %131
  br label %133

133:                                              ; preds = %132
  %134 = load i64, ptr @H5E_VFL_g, align 8, !tbaa !11
  %135 = load i64, ptr @H5E_WRITEERROR_g, align 8, !tbaa !11
  %136 = call i32 (ptr, ptr, i32, i64, i64, ptr, ...) @H5E_printf_stack(ptr noundef @.str.1, ptr noundef @__func__.H5FD__core_flush, i32 noundef 1463, i64 noundef %134, i64 noundef %135, ptr noundef @.str.47)
  br label %137

137:                                              ; preds = %133
  br label %138

138:                                              ; preds = %137
  store i8 1, ptr %10, align 1, !tbaa !7
  %139 = load i8, ptr %10, align 1, !tbaa !7, !range !9, !noundef !10
  %140 = trunc i8 %139 to i1
  %141 = zext i1 %140 to i8
  store i8 %141, ptr %10, align 1, !tbaa !7
  br label %142

142:                                              ; preds = %138
  br label %143

143:                                              ; preds = %142
  br label %144

144:                                              ; preds = %143
  store i32 -1, ptr %9, align 4, !tbaa !3
  br label %154

145:                                              ; No predecessors!
  br label %146

146:                                              ; preds = %145
  br label %147

147:                                              ; preds = %146
  br label %148

148:                                              ; preds = %147
  br label %149

149:                                              ; preds = %148, %123
  br label %150

150:                                              ; preds = %149, %122
  %151 = load ptr, ptr %8, align 8, !tbaa !31
  %152 = getelementptr inbounds nuw %struct.H5FD_core_t, ptr %151, i32 0, i32 13
  store i8 0, ptr %152, align 8, !tbaa !70
  br label %153

153:                                              ; preds = %150, %40, %35, %30
  br label %154

154:                                              ; preds = %153, %120, %144
  br label %155

155:                                              ; preds = %154, %22
  %156 = load i32, ptr %9, align 4, !tbaa !3
  store i32 %156, ptr %4, align 4
  store i32 1, ptr %13, align 4
  br label %157

157:                                              ; preds = %155, %120
  call void @llvm.lifetime.end.p0(i64 1, ptr %10) #12
  call void @llvm.lifetime.end.p0(i64 4, ptr %9) #12
  call void @llvm.lifetime.end.p0(i64 8, ptr %8) #12
  %158 = load i32, ptr %4, align 4
  ret i32 %158
}