; Function Attrs: nounwind uwtable
define internal range(i32 -1, 1) i32 @H5FD__core_flush(ptr noundef captures(none) %0, i64 %1, i1 zeroext %2) #0 {
  %4 = load i8, ptr @H5FD_init_g, align 1, !tbaa !3, !range !7, !noundef !8
  %5 = trunc nuw i8 %4 to i1
  %6 = load i8, ptr @H5_libterm_g, align 1, !range !7
  %7 = trunc nuw i8 %6 to i1
  %8 = xor i1 %7, true
  %9 = select i1 %5, i1 true, i1 %8
  br i1 %9, label %10, label %57, !prof !9

10:                                               ; preds = %3
  %11 = getelementptr inbounds nuw i8, ptr %0, i64 160
  %12 = load i8, ptr %11, align 8, !tbaa !66, !range !7, !noundef !8
  %13 = trunc nuw i8 %12 to i1
  br i1 %13, label %14, label %57

14:                                               ; preds = %10
  %15 = getelementptr inbounds nuw i8, ptr %0, i64 140
  %16 = load i32, ptr %15, align 4, !tbaa !30
  %17 = icmp sgt i32 %16, -1
  br i1 %17, label %18, label %57

18:                                               ; preds = %14
  %19 = getelementptr inbounds nuw i8, ptr %0, i64 120
  %20 = load i8, ptr %19, align 8, !tbaa !38, !range !7, !noundef !8
  %21 = trunc nuw i8 %20 to i1
  br i1 %21, label %22, label %57

22:                                               ; preds = %18
  %23 = getelementptr inbounds nuw i8, ptr %0, i64 224
  %24 = load ptr, ptr %23, align 8, !tbaa !56
  %.not = icmp eq ptr %24, null
  br i1 %.not, label %49, label %.preheader

.preheader:                                       ; preds = %22
  %25 = tail call ptr @H5SL_remove_first(ptr noundef nonnull %24) #18
  %.not3036 = icmp eq ptr %25, null
  br i1 %.not3036, label %.thread, label %.lr.ph

.lr.ph:                                           ; preds = %.preheader
  %26 = getelementptr inbounds nuw i8, ptr %0, i64 104
  br label %27

27:                                               ; preds = %.lr.ph, %41
  %28 = phi ptr [ %25, %.lr.ph ], [ %44, %41 ]
  %29 = load i64, ptr %28, align 8, !tbaa !62
  %30 = load i64, ptr %26, align 8, !tbaa !51
  %31 = icmp ult i64 %29, %30
  br i1 %31, label %32, label %41

32:                                               ; preds = %27
  %33 = getelementptr inbounds nuw i8, ptr %28, i64 8
  %34 = load i64, ptr %33, align 8, !tbaa !64
  %.not31 = icmp ult i64 %34, %30
  br i1 %.not31, label %37, label %35

35:                                               ; preds = %32
  %36 = add i64 %30, -1
  store i64 %36, ptr %33, align 8, !tbaa !64
  br label %37

37:                                               ; preds = %35, %32
  %38 = phi i64 [ %36, %35 ], [ %34, %32 ]
  %reass.sub = sub i64 %38, %29
  %39 = add i64 %reass.sub, 1
  %40 = tail call fastcc i32 @H5FD__core_write_to_bstore(ptr noundef nonnull %0, i64 noundef %29, i64 noundef %39)
  %.not32 = icmp eq i32 %40, 0
  br i1 %.not32, label %41, label %45

41:                                               ; preds = %37, %27
  %42 = tail call ptr @H5FL_reg_free(ptr noundef nonnull @H5_H5FD_core_region_t_reg_free_list, ptr noundef nonnull %28) #18
  %43 = load ptr, ptr %23, align 8, !tbaa !56
  %44 = tail call ptr @H5SL_remove_first(ptr noundef %43) #18
  %.not30 = icmp eq ptr %44, null
  br i1 %.not30, label %.thread, label %27, !llvm.loop !67

45:                                               ; preds = %37
  %46 = load i64, ptr @H5E_VFL_g, align 8, !tbaa !10
  %47 = load i64, ptr @H5E_WRITEERROR_g, align 8, !tbaa !10
  %48 = tail call i32 (ptr, ptr, i32, i64, i64, ptr, ...) @H5E_printf_stack(ptr noundef nonnull @.str.1, ptr noundef nonnull @__func__.H5FD__core_flush, i32 noundef 1453, i64 noundef %46, i64 noundef %47, ptr noundef nonnull @.str.47) #18
  br label %57

49:                                               ; preds = %22
  %50 = getelementptr inbounds nuw i8, ptr %0, i64 104
  %51 = load i64, ptr %50, align 8, !tbaa !51
  %52 = tail call fastcc i32 @H5FD__core_write_to_bstore(ptr noundef nonnull %0, i64 noundef 0, i64 noundef %51)
  %.not29 = icmp eq i32 %52, 0
  br i1 %.not29, label %.thread, label %53

53:                                               ; preds = %49
  %54 = load i64, ptr @H5E_VFL_g, align 8, !tbaa !10
  %55 = load i64, ptr @H5E_WRITEERROR_g, align 8, !tbaa !10
  %56 = tail call i32 (ptr, ptr, i32, i64, i64, ptr, ...) @H5E_printf_stack(ptr noundef nonnull @.str.1, ptr noundef nonnull @__func__.H5FD__core_flush, i32 noundef 1463, i64 noundef %54, i64 noundef %55, ptr noundef nonnull @.str.47) #18
  br label %57

.thread:                                          ; preds = %41, %.preheader, %49
  store i8 0, ptr %11, align 8, !tbaa !66
  br label %57

57:                                               ; preds = %45, %3, %10, %14, %18, %.thread, %53
  %.025 = phi i32 [ -1, %45 ], [ 0, %.thread ], [ -1, %53 ], [ 0, %18 ], [ 0, %14 ], [ 0, %10 ], [ 0, %3 ]
  ret i32 %.025
}